; Function Attrs: mustprogress nofree norecurse nosync nounwind willreturn memory(argmem: write) uwtable
define void @_ZN4YAML5RegExC2Ecc(ptr noundef nonnull writeonly align 8 captures(none) dereferenceable(32) initializes((0, 6), (8, 32)) %0, i8 noundef signext %1, i8 noundef signext %2) unnamed_addr #0 align 2 {
  store i32 2, ptr %0, align 8, !tbaa !3
  %4 = getelementptr inbounds nuw i8, ptr %0, i64 4
  store i8 %1, ptr %4, align 4, !tbaa !14
  %5 = getelementptr inbounds nuw i8, ptr %0, i64 5
  store i8 %2, ptr %5, align 1, !tbaa !15
  %6 = getelementptr inbounds nuw i8, ptr %0, i64 8
  tail call void @llvm.memset.p0.i64(ptr noundef nonnull align 8 dereferenceable(24) %6, i8 0, i64 24, i1 false)
  ret void
}